; Function Attrs: mustprogress uwtable
define hidden void @_ZN2cv9BitStream7putByteEi(ptr noundef nonnull align 8 dereferenceable(569) %0, i32 noundef %1) local_unnamed_addr #4 align 2 {
  %3 = trunc i32 %1 to i8
  %4 = getelementptr inbounds nuw i8, ptr %0, i64 552
  %5 = load ptr, ptr %4, align 8, !tbaa !133
  %6 = getelementptr inbounds nuw i8, ptr %5, i64 1
  store ptr %6, ptr %4, align 8, !tbaa !133
  store i8 %3, ptr %5, align 1, !tbaa !27
  %7 = load ptr, ptr %4, align 8, !tbaa !133
  %8 = getelementptr inbounds nuw i8, ptr %0, i64 544
  %9 = load ptr, ptr %8, align 8, !tbaa !130
  %.not = icmp ult ptr %7, %9
  br i1 %.not, label %23, label %10

10:                                               ; preds = %2
  %11 = getelementptr inbounds nuw i8, ptr %0, i64 536
  %12 = load ptr, ptr %11, align 8, !tbaa !123
  %13 = ptrtoint ptr %7 to i64
  %14 = ptrtoint ptr %12 to i64
  %15 = sub i64 %13, %14
  %16 = icmp sgt i64 %15, 0
  br i1 %16, label %17, label %_ZN2cv9BitStream10writeBlockEv.exit

17:                                               ; preds = %10
  %18 = tail call noundef nonnull align 8 dereferenceable(8) ptr @_ZNSo5writeEPKcl(ptr noundef nonnull align 8 dereferenceable(569) %0, ptr noundef %12, i64 noundef %15)
  %.pre.i = load ptr, ptr %11, align 8, !tbaa !123
  br label %_ZN2cv9BitStream10writeBlockEv.exit

_ZN2cv9BitStream10writeBlockEv.exit:              ; preds = %10, %17
  %19 = phi ptr [ %.pre.i, %17 ], [ %12, %10 ]
  %20 = getelementptr inbounds nuw i8, ptr %0, i64 560
  %21 = load i64, ptr %20, align 8, !tbaa !134
  %22 = add i64 %21, %15
  store i64 %22, ptr %20, align 8, !tbaa !134
  store ptr %19, ptr %4, align 8, !tbaa !133
  br label %23

23:                                               ; preds = %_ZN2cv9BitStream10writeBlockEv.exit, %2
  ret void
}